target datalayout = "e-m:e-p270:32:32-p271:32:32-p272:64:64-i64:64-i128:128-f80:128-n8:16:32:64-S128"
target triple = "x86_64-pc-linux-gnu"

%struct.darktable_t = type { %struct.dt_codepath_t, i32, i32, ptr, ptr, ptr, ptr, ptr, ptr, ptr, ptr, ptr, ptr, ptr, ptr, ptr, ptr, ptr, ptr, ptr, ptr, ptr, ptr, ptr, ptr, ptr, ptr, ptr, ptr, ptr, [64 x %struct.dt_pthread_mutex_t], %struct.dt_pthread_mutex_t, %struct.dt_pthread_mutex_t, %struct.dt_pthread_mutex_t, %struct.dt_pthread_mutex_t, %struct.dt_pthread_mutex_t, ptr, ptr, ptr, ptr, ptr, ptr, ptr, ptr, ptr, ptr, ptr, ptr, ptr, %struct.dt_lua_state_t, ptr, double, ptr, i32, [47 x i32], i32, i32, ptr, ptr, %struct.dt_sys_resources_t, %struct.dt_backthumb_t, %struct.dt_gimp_t }
%struct.dt_codepath_t = type { i8, [3 x i8] }
%struct.dt_pthread_mutex_t = type { %union.pthread_mutex_t }
%union.pthread_mutex_t = type { %struct.__pthread_mutex_s }
%struct.__pthread_mutex_s = type { i32, i32, i32, i32, i32, i16, i16, %struct.__pthread_internal_list }
%struct.__pthread_internal_list = type { ptr, ptr }
%struct.dt_lua_state_t = type { i32 }
%struct.dt_sys_resources_t = type { i64, i64, ptr, ptr, i32 }
%struct.dt_backthumb_t = type { double, double, i32, i32, i32, i32 }
%struct.dt_gimp_t = type { i32, ptr, ptr, i32, i32 }
%struct._GdkRGBA = type { double, double, double, double }
%struct._DtBauhausWidget = type { %struct._GtkDrawingArea, i32, ptr, ptr, i32, [256 x i8], i32, ptr, i32, ptr, ptr, i32, ptr, i32, i32, i32, %struct._GtkBorder, %struct._GtkBorder, i32, %union.dt_bauhaus_data_t }
%struct._GtkDrawingArea = type { %struct._GtkWidget, ptr }
%struct._GtkWidget = type { %struct._GObject, ptr }
%struct._GObject = type { %struct._GTypeInstance, i32, ptr }
%struct._GTypeInstance = type { ptr }
%struct._GtkBorder = type { i16, i16, i16, i16 }
%union.dt_bauhaus_data_t = type { %struct.dt_bauhaus_slider_data_t }
%struct.dt_bauhaus_slider_data_t = type { float, float, float, float, float, float, float, float, float, float, i32, ptr, i32, ptr, i8, ptr, float, float, i8, i32, ptr }
%struct.dt_bauhaus_t = type { ptr, %struct.dt_bauhaus_popup_t, ptr, float, float, i32, i32, float, [180 x i8], i32, i32, [2 x i32], i32, ptr, ptr, float, float, float, float, float, ptr, ptr, i32, i32, i32, %struct._GdkRGBA, %struct._GdkRGBA, %struct._GdkRGBA, %struct._GdkRGBA, %struct._GdkRGBA, %struct._GdkRGBA, %struct._GdkRGBA, %struct._GdkRGBA, %struct._GdkRGBA, %struct._GdkRGBA, %struct._GdkRGBA, %struct._GdkRGBA, %struct._GdkRGBA, %struct._GdkRGBA, %struct._GdkRGBA, [3 x %struct._GdkRGBA], [5 x %struct._GdkRGBA] }
%struct.dt_bauhaus_popup_t = type { ptr, ptr, %struct._GtkBorder, %struct._cairo_rectangle_int, i32, i32, i32 }
%struct._cairo_rectangle_int = type { i32, i32, i32, i32 }

@dt_bh_get_type.static_g_define_type_id = internal global i64 0, align 8
@darktable = external global %struct.darktable_t, align 8
@.str.47 = private unnamed_addr constant [14 x i8] c"value-changed\00", align 1

; Function Attrs: nounwind uwtable
define i64 @dt_bh_get_type() #0 {
  %1 = alloca i32, align 4
  %2 = alloca i64, align 8
  %3 = alloca ptr, align 8
  %4 = alloca i64, align 8
  %5 = alloca i64, align 8
  call void @llvm.lifetime.start.p0(i64 8, ptr %2) #13
  call void @llvm.lifetime.start.p0(i64 8, ptr %3) #13
  store ptr @dt_bh_get_type.static_g_define_type_id, ptr %3, align 8, !tbaa !6
  %6 = load ptr, ptr %3, align 8, !tbaa !6
  %7 = load atomic i64, ptr %6 seq_cst, align 8
  store i64 %7, ptr %2, align 8
  %8 = load i64, ptr %2, align 8, !tbaa !11
  store i64 %8, ptr %4, align 8, !tbaa !11
  call void @llvm.lifetime.end.p0(i64 8, ptr %3) #13
  call void @llvm.lifetime.end.p0(i64 8, ptr %2) #13
  %9 = load i64, ptr %4, align 8, !tbaa !11
  %10 = icmp ne i64 %9, 0
  br i1 %10, label %14, label %11

11:                                               ; preds = %0
  %12 = call i32 @g_once_init_enter(ptr noundef @dt_bh_get_type.static_g_define_type_id)
  %13 = icmp ne i32 %12, 0
  br label %14

14:                                               ; preds = %11, %0
  %15 = phi i1 [ false, %0 ], [ %13, %11 ]
  %16 = zext i1 %15 to i32
  store i32 %16, ptr %1, align 4, !tbaa !13
  %17 = load i32, ptr %1, align 4, !tbaa !13
  %18 = icmp ne i32 %17, 0
  br i1 %18, label %19, label %22

19:                                               ; preds = %14
  call void @llvm.lifetime.start.p0(i64 8, ptr %5) #13
  %20 = call i64 @dt_bh_get_type_once()
  store i64 %20, ptr %5, align 8, !tbaa !11
  %21 = load i64, ptr %5, align 8, !tbaa !11
  call void @g_once_init_leave(ptr noundef @dt_bh_get_type.static_g_define_type_id, i64 noundef %21)
  call void @llvm.lifetime.end.p0(i64 8, ptr %5) #13
  br label %22

22:                                               ; preds = %19, %14
  %23 = load i64, ptr @dt_bh_get_type.static_g_define_type_id, align 8, !tbaa !11
  ret i64 %23
}

; Function Attrs: inlinehint nounwind uwtable
define internal ptr @DT_BAUHAUS_WIDGET(ptr noundef %0) #4 {
  %2 = alloca ptr, align 8
  store ptr %0, ptr %2, align 8, !tbaa !32
  %3 = load ptr, ptr %2, align 8, !tbaa !32
  %4 = call i64 @dt_bh_get_type()
  %5 = call ptr @g_type_check_instance_cast(ptr noundef %3, i64 noundef %4)
  ret ptr %5
}

; Function Attrs: nounwind uwtable
define void @dt_bauhaus_combobox_add(ptr noundef %0, ptr noundef %1) #0 {
  %3 = alloca ptr, align 8
  %4 = alloca ptr, align 8
  store ptr %0, ptr %3, align 8, !tbaa !15
  store ptr %1, ptr %4, align 8, !tbaa !171
  %5 = load ptr, ptr %3, align 8, !tbaa !15
  %6 = load ptr, ptr %4, align 8, !tbaa !171
  call void @dt_bauhaus_combobox_add_full(ptr noundef %5, ptr noundef %6, i32 noundef 1, ptr noundef null, ptr noundef null, i32 noundef 1)
  ret void
}

; Function Attrs: nounwind uwtable
define void @dt_bauhaus_combobox_set(ptr noundef %0, i32 noundef %1) #0 {
  %3 = alloca ptr, align 8
  %4 = alloca i32, align 4
  %5 = alloca ptr, align 8
  %6 = alloca i32, align 4
  store ptr %0, ptr %3, align 8, !tbaa !15
  store i32 %1, ptr %4, align 4, !tbaa !13
  call void @llvm.lifetime.start.p0(i64 8, ptr %5) #13
  %7 = load ptr, ptr %3, align 8, !tbaa !15
  %8 = call ptr @DT_BAUHAUS_WIDGET(ptr noundef %7)
  store ptr %8, ptr %5, align 8, !tbaa !17
  %9 = load ptr, ptr %5, align 8, !tbaa !17
  %10 = getelementptr inbounds nuw %struct._DtBauhausWidget, ptr %9, i32 0, i32 1
  %11 = load i32, ptr %10, align 8, !tbaa !139
  %12 = icmp ne i32 %11, 2
  br i1 %12, label %13, label %14

13:                                               ; preds = %2
  store i32 1, ptr %6, align 4
  br label %17

14:                                               ; preds = %2
  %15 = load ptr, ptr %5, align 8, !tbaa !17
  %16 = load i32, ptr %4, align 4, !tbaa !13
  call void @_combobox_set(ptr noundef %15, i32 noundef %16, i32 noundef 0)
  store i32 0, ptr %6, align 4
  br label %17

17:                                               ; preds = %14, %13
  call void @llvm.lifetime.end.p0(i64 8, ptr %5) #13
  %18 = load i32, ptr %6, align 4
  switch i32 %18, label %20 [
    i32 0, label %19
    i32 1, label %19
  ]

19:                                               ; preds = %17, %17
  ret void

20:                                               ; preds = %17
  unreachable
}

; Function Attrs: nounwind uwtable
define void @dt_bauhaus_combobox_add_list(ptr noundef %0, ptr noundef %1, ptr noundef %2) #0 {
  %4 = alloca ptr, align 8
  %5 = alloca ptr, align 8
  %6 = alloca ptr, align 8
  store ptr %0, ptr %4, align 8, !tbaa !15
  store ptr %1, ptr %5, align 8, !tbaa !214
  store ptr %2, ptr %6, align 8, !tbaa !272
  %7 = load ptr, ptr %5, align 8, !tbaa !214
  %8 = icmp ne ptr %7, null
  br i1 %8, label %9, label %16

9:                                                ; preds = %3
  %10 = load ptr, ptr getelementptr inbounds nuw (%struct.darktable_t, ptr @darktable, i32 0, i32 17), align 8, !tbaa !78
  %11 = getelementptr inbounds nuw %struct.dt_bauhaus_t, ptr %10, i32 0, i32 14
  %12 = load ptr, ptr %11, align 8, !tbaa !107
  %13 = load ptr, ptr %5, align 8, !tbaa !214
  %14 = load ptr, ptr %6, align 8, !tbaa !272
  %15 = call i32 @g_hash_table_insert(ptr noundef %12, ptr noundef %13, ptr noundef %14)
  br label %16

16:                                               ; preds = %9, %3
  br label %17

17:                                               ; preds = %26, %16
  %18 = load ptr, ptr %6, align 8, !tbaa !272
  %19 = icmp ne ptr %18, null
  br i1 %19, label %20, label %24

20:                                               ; preds = %17
  %21 = load ptr, ptr %6, align 8, !tbaa !272
  %22 = load ptr, ptr %21, align 8, !tbaa !171
  %23 = icmp ne ptr %22, null
  br label %24

24:                                               ; preds = %20, %17
  %25 = phi i1 [ false, %17 ], [ %23, %20 ]
  br i1 %25, label %26, label %32

26:                                               ; preds = %24
  %27 = load ptr, ptr %4, align 8, !tbaa !15
  %28 = load ptr, ptr %6, align 8, !tbaa !272
  %29 = getelementptr inbounds nuw ptr, ptr %28, i32 1
  store ptr %29, ptr %6, align 8, !tbaa !272
  %30 = load ptr, ptr %28, align 8, !tbaa !171
  %31 = call ptr @g_dpgettext(ptr noundef null, ptr noundef %30, i64 noundef 0)
  call void @dt_bauhaus_combobox_add(ptr noundef %27, ptr noundef %31)
  br label %17

32:                                               ; preds = %24
  ret void
}

; Function Attrs: nounwind uwtable
define ptr @dt_bauhaus_combobox_new_action(ptr noundef %0) #0 {
  %2 = alloca ptr, align 8
  store ptr %0, ptr %2, align 8, !tbaa !214
  %3 = load ptr, ptr %2, align 8, !tbaa !214
  %4 = call ptr @dt_bauhaus_combobox_new(ptr noundef %3)
  ret ptr %4
}

; Function Attrs: nounwind uwtable
define ptr @dt_bauhaus_combobox_new_full(ptr noundef %0, ptr noundef %1, ptr noundef %2, ptr noundef %3, i32 noundef %4, ptr noundef %5, ptr noundef %6, ptr noundef %7) #0 {
  %9 = alloca ptr, align 8
  %10 = alloca ptr, align 8
  %11 = alloca ptr, align 8
  %12 = alloca ptr, align 8
  %13 = alloca i32, align 4
  %14 = alloca ptr, align 8
  %15 = alloca ptr, align 8
  %16 = alloca ptr, align 8
  %17 = alloca ptr, align 8
  %18 = alloca ptr, align 8
  store ptr %0, ptr %9, align 8, !tbaa !214
  store ptr %1, ptr %10, align 8, !tbaa !171
  store ptr %2, ptr %11, align 8, !tbaa !171
  store ptr %3, ptr %12, align 8, !tbaa !171
  store i32 %4, ptr %13, align 4, !tbaa !13
  store ptr %5, ptr %14, align 8, !tbaa !32
  store ptr %6, ptr %15, align 8, !tbaa !32
  store ptr %7, ptr %16, align 8, !tbaa !272
  call void @llvm.lifetime.start.p0(i64 8, ptr %17) #13
  %19 = load ptr, ptr %9, align 8, !tbaa !214
  %20 = call ptr @dt_bauhaus_combobox_new_action(ptr noundef %19)
  store ptr %20, ptr %17, align 8, !tbaa !15
  call void @llvm.lifetime.start.p0(i64 8, ptr %18) #13
  %21 = load ptr, ptr %17, align 8, !tbaa !15
  %22 = load ptr, ptr %10, align 8, !tbaa !171
  %23 = load ptr, ptr %11, align 8, !tbaa !171
  %24 = call ptr @dt_bauhaus_widget_set_label(ptr noundef %21, ptr noundef %22, ptr noundef %23)
  store ptr %24, ptr %18, align 8, !tbaa !214
  %25 = load ptr, ptr %17, align 8, !tbaa !15
  %26 = load ptr, ptr %18, align 8, !tbaa !214
  %27 = load ptr, ptr %16, align 8, !tbaa !272
  call void @dt_bauhaus_combobox_add_list(ptr noundef %25, ptr noundef %26, ptr noundef %27)
  %28 = load ptr, ptr %17, align 8, !tbaa !15
  %29 = load i32, ptr %13, align 4, !tbaa !13
  call void @dt_bauhaus_combobox_set(ptr noundef %28, i32 noundef %29)
  %30 = load ptr, ptr %17, align 8, !tbaa !15
  %31 = load ptr, ptr %12, align 8, !tbaa !171
  %32 = icmp ne ptr %31, null
  br i1 %32, label %33, label %35

33:                                               ; preds = %8
  %34 = load ptr, ptr %12, align 8, !tbaa !171
  br label %38

35:                                               ; preds = %8
  %36 = load ptr, ptr %11, align 8, !tbaa !171
  %37 = call ptr @dcgettext(ptr noundef null, ptr noundef %36, i32 noundef 5) #13
  br label %38

38:                                               ; preds = %35, %33
  %39 = phi ptr [ %34, %33 ], [ %37, %35 ]
  call void @gtk_widget_set_tooltip_text(ptr noundef %30, ptr noundef %39)
  %40 = load ptr, ptr %14, align 8, !tbaa !32
  %41 = icmp ne ptr %40, null
  br i1 %41, label %42, label %48

42:                                               ; preds = %38
  %43 = load ptr, ptr %17, align 8, !tbaa !15
  %44 = call ptr @g_type_check_instance_cast(ptr noundef %43, i64 noundef 80)
  %45 = load ptr, ptr %14, align 8, !tbaa !32
  %46 = load ptr, ptr %15, align 8, !tbaa !32
  %47 = call i64 @g_signal_connect_data(ptr noundef %44, ptr noundef @.str.47, ptr noundef %45, ptr noundef %46, ptr noundef null, i32 noundef 0)
  br label %48

48:                                               ; preds = %42, %38
  %49 = load ptr, ptr %17, align 8, !tbaa !15
  call void @llvm.lifetime.end.p0(i64 8, ptr %18) #13
  call void @llvm.lifetime.end.p0(i64 8, ptr %17) #13
  ret ptr %49
}