; Function Attrs: nounwind uwtable
define noundef ptr @dt_bauhaus_combobox_new_full(ptr noundef %0, ptr noundef %1, ptr noundef %2, ptr noundef %3, i32 noundef %4, ptr noundef %5, ptr noundef %6, ptr noundef %7) local_unnamed_addr #0 {
  %9 = tail call ptr @dt_bauhaus_combobox_new(ptr noundef %0)
  %10 = tail call ptr @dt_bauhaus_widget_set_label(ptr noundef %9, ptr noundef %1, ptr noundef %2)
  %.not.i = icmp eq ptr %10, null
  br i1 %.not.i, label %16, label %11

11:                                               ; preds = %8
  %12 = load ptr, ptr getelementptr inbounds nuw (i8, ptr @darktable, i64 128), align 8, !tbaa !67
  %13 = getelementptr inbounds nuw i8, ptr %12, i64 304
  %14 = load ptr, ptr %13, align 8, !tbaa !87
  %15 = tail call i32 @g_hash_table_insert(ptr noundef %14, ptr noundef nonnull %10, ptr noundef %7) #19
  br label %16

16:                                               ; preds = %11, %8
  %.not911.i = icmp eq ptr %7, null
  br i1 %.not911.i, label %dt_bauhaus_combobox_add_list.exit, label %.lr.ph.i.preheader

.lr.ph.i.preheader:                               ; preds = %16
  %17 = load ptr, ptr %7, align 8, !tbaa !167
  %.not10.i20 = icmp eq ptr %17, null
  br i1 %.not10.i20, label %dt_bauhaus_combobox_add_list.exit, label %.lr.ph.i

.lr.ph.i:                                         ; preds = %.lr.ph.i.preheader, %.lr.ph.i
  %18 = phi ptr [ %21, %.lr.ph.i ], [ %17, %.lr.ph.i.preheader ]
  %.012.i21 = phi ptr [ %19, %.lr.ph.i ], [ %7, %.lr.ph.i.preheader ]
  %19 = getelementptr inbounds nuw i8, ptr %.012.i21, i64 8
  %20 = tail call ptr @g_dpgettext(ptr noundef null, ptr noundef nonnull %18, i64 noundef 0) #19
  tail call void @dt_bauhaus_combobox_add_full(ptr noundef %9, ptr noundef %20, i32 noundef 1, ptr noundef null, ptr noundef null, i32 noundef 1)
  %21 = load ptr, ptr %19, align 8, !tbaa !167
  %.not10.i = icmp eq ptr %21, null
  br i1 %.not10.i, label %dt_bauhaus_combobox_add_list.exit, label %.lr.ph.i

dt_bauhaus_combobox_add_list.exit:                ; preds = %.lr.ph.i, %.lr.ph.i.preheader, %16
  %22 = load atomic i64, ptr @dt_bh_get_type.static_g_define_type_id seq_cst, align 8
  %.not.i.i.i = icmp eq i64 %22, 0
  br i1 %.not.i.i.i, label %23, label %DT_BAUHAUS_WIDGET.exit.i

23:                                               ; preds = %dt_bauhaus_combobox_add_list.exit
  %24 = tail call i32 @g_once_init_enter(ptr noundef nonnull @dt_bh_get_type.static_g_define_type_id) #19
  %.not4.i.i.i = icmp eq i32 %24, 0
  br i1 %.not4.i.i.i, label %DT_BAUHAUS_WIDGET.exit.i, label %25

25:                                               ; preds = %23
  %26 = tail call fastcc i64 @dt_bh_get_type_once()
  tail call void @g_once_init_leave(ptr noundef nonnull @dt_bh_get_type.static_g_define_type_id, i64 noundef %26) #19
  br label %DT_BAUHAUS_WIDGET.exit.i

DT_BAUHAUS_WIDGET.exit.i:                         ; preds = %25, %23, %dt_bauhaus_combobox_add_list.exit
  %27 = load i64, ptr @dt_bh_get_type.static_g_define_type_id, align 8, !tbaa !6
  %28 = tail call ptr @g_type_check_instance_cast(ptr noundef %9, i64 noundef %27) #19
  %29 = getelementptr inbounds nuw i8, ptr %28, i64 40
  %30 = load i32, ptr %29, align 8, !tbaa !105
  %.not.i19 = icmp eq i32 %30, 2
  br i1 %.not.i19, label %31, label %dt_bauhaus_combobox_set.exit

31:                                               ; preds = %DT_BAUHAUS_WIDGET.exit.i
  tail call fastcc void @_combobox_set(ptr noundef nonnull %28, i32 noundef %4, i32 noundef 0)
  br label %dt_bauhaus_combobox_set.exit

dt_bauhaus_combobox_set.exit:                     ; preds = %DT_BAUHAUS_WIDGET.exit.i, %31
  %.not = icmp eq ptr %3, null
  br i1 %.not, label %32, label %34

32:                                               ; preds = %dt_bauhaus_combobox_set.exit
  %33 = tail call ptr @dcgettext(ptr noundef null, ptr noundef %2, i32 noundef 5) #19
  br label %34

34:                                               ; preds = %dt_bauhaus_combobox_set.exit, %32
  %35 = phi ptr [ %33, %32 ], [ %3, %dt_bauhaus_combobox_set.exit ]
  tail call void @gtk_widget_set_tooltip_text(ptr noundef %9, ptr noundef %35) #19
  %.not18 = icmp eq ptr %5, null
  br i1 %.not18, label %39, label %36

36:                                               ; preds = %34
  %37 = tail call ptr @g_type_check_instance_cast(ptr noundef %9, i64 noundef 80) #19
  %38 = tail call i64 @g_signal_connect_data(ptr noundef %37, ptr noundef nonnull @.str.47, ptr noundef nonnull %5, ptr noundef %6, ptr noundef null, i32 noundef 0) #19
  br label %39

39:                                               ; preds = %36, %34
  ret ptr %9
}